target datalayout = "e-m:e-p270:32:32-p271:32:32-p272:64:64-i64:64-i128:128-f80:128-n8:16:32:64-S128"
target triple = "x86_64-pc-linux-gnu"

%struct.giop_module_key = type { ptr }
%struct.giop_module_val = type { ptr }
%struct.giop_sub_handle = type { ptr, ptr, ptr }

@giop_module_hash = hidden global ptr null, align 8

; Function Attrs: null_pointer_is_valid sspstrong uwtable
define void @register_giop_user_module(ptr noundef %0, ptr noundef %1, ptr noundef %2, i32 noundef %3) #0 {
  %5 = alloca ptr, align 8
  %6 = alloca ptr, align 8
  %7 = alloca ptr, align 8
  %8 = alloca i32, align 4
  %9 = alloca %struct.giop_module_key, align 8
  %10 = alloca ptr, align 8
  %11 = alloca ptr, align 8
  %12 = alloca i32, align 4
  store ptr %0, ptr %5, align 8
  store ptr %1, ptr %6, align 8
  store ptr %2, ptr %7, align 8
  store i32 %3, ptr %8, align 4
  call void @llvm.lifetime.start.p0(i64 8, ptr %9) #14
  call void @llvm.lifetime.start.p0(i64 8, ptr %10) #14
  call void @llvm.lifetime.start.p0(i64 8, ptr %11) #14
  %13 = load ptr, ptr %7, align 8
  %14 = getelementptr inbounds nuw %struct.giop_module_key, ptr %9, i32 0, i32 0
  store ptr %13, ptr %14, align 8
  %15 = load ptr, ptr @giop_module_hash, align 8
  %16 = call ptr @g_hash_table_lookup(ptr noundef %15, ptr noundef %9)
  store ptr %16, ptr %11, align 8
  %17 = load ptr, ptr %11, align 8
  %18 = icmp ne ptr %17, null
  br i1 %18, label %19, label %20

19:                                               ; preds = %4
  store i32 1, ptr %12, align 4
  br label %58

20:                                               ; preds = %4
  br label %21

21:                                               ; preds = %20
  br label %22

22:                                               ; preds = %21
  br label %23

23:                                               ; preds = %22
  br label %24

24:                                               ; preds = %23
  br label %25

25:                                               ; preds = %24
  br label %26

26:                                               ; preds = %25
  %27 = call ptr @wmem_epan_scope()
  %28 = call noalias ptr @wmem_alloc(ptr noundef %27, i64 noundef 8) #15
  store ptr %28, ptr %10, align 8
  %29 = load ptr, ptr %7, align 8
  %30 = load ptr, ptr %10, align 8
  %31 = getelementptr inbounds nuw %struct.giop_module_key, ptr %30, i32 0, i32 0
  store ptr %29, ptr %31, align 8
  %32 = call ptr @wmem_epan_scope()
  %33 = call noalias ptr @wmem_alloc(ptr noundef %32, i64 noundef 8) #15
  store ptr %33, ptr %11, align 8
  %34 = call ptr @wmem_epan_scope()
  %35 = call noalias ptr @wmem_alloc(ptr noundef %34, i64 noundef 24) #15
  %36 = load ptr, ptr %11, align 8
  %37 = getelementptr inbounds nuw %struct.giop_module_val, ptr %36, i32 0, i32 0
  store ptr %35, ptr %37, align 8
  %38 = load ptr, ptr %6, align 8
  %39 = load ptr, ptr %11, align 8
  %40 = getelementptr inbounds nuw %struct.giop_module_val, ptr %39, i32 0, i32 0
  %41 = load ptr, ptr %40, align 8
  %42 = getelementptr inbounds nuw %struct.giop_sub_handle, ptr %41, i32 0, i32 1
  store ptr %38, ptr %42, align 8
  %43 = load ptr, ptr %5, align 8
  %44 = load ptr, ptr %11, align 8
  %45 = getelementptr inbounds nuw %struct.giop_module_val, ptr %44, i32 0, i32 0
  %46 = load ptr, ptr %45, align 8
  %47 = getelementptr inbounds nuw %struct.giop_sub_handle, ptr %46, i32 0, i32 0
  store ptr %43, ptr %47, align 8
  %48 = load i32, ptr %8, align 4
  %49 = call ptr @find_protocol_by_id(i32 noundef %48)
  %50 = load ptr, ptr %11, align 8
  %51 = getelementptr inbounds nuw %struct.giop_module_val, ptr %50, i32 0, i32 0
  %52 = load ptr, ptr %51, align 8
  %53 = getelementptr inbounds nuw %struct.giop_sub_handle, ptr %52, i32 0, i32 2
  store ptr %49, ptr %53, align 8
  %54 = load ptr, ptr @giop_module_hash, align 8
  %55 = load ptr, ptr %10, align 8
  %56 = load ptr, ptr %11, align 8
  %57 = call i32 @g_hash_table_insert(ptr noundef %54, ptr noundef %55, ptr noundef %56)
  store i32 0, ptr %12, align 4
  br label %58

58:                                               ; preds = %26, %19
  call void @llvm.lifetime.end.p0(i64 8, ptr %11) #14
  call void @llvm.lifetime.end.p0(i64 8, ptr %10) #14
  call void @llvm.lifetime.end.p0(i64 8, ptr %9) #14
  %59 = load i32, ptr %12, align 4
  switch i32 %59, label %61 [
    i32 0, label %60
    i32 1, label %60
  ]

60:                                               ; preds = %58, %58
  ret void

61:                                               ; preds = %58
  unreachable
}