; Function Attrs: null_pointer_is_valid sspstrong uwtable
define void @register_giop_user_module(ptr noundef %0, ptr noundef %1, ptr noundef %2, i32 noundef %3) local_unnamed_addr #0 {
  %5 = alloca %struct.giop_module_key, align 8
  call void @llvm.lifetime.start.p0(i64 8, ptr nonnull %5) #17
  store ptr %2, ptr %5, align 8
  %6 = load ptr, ptr @giop_module_hash, align 8
  %7 = call ptr @g_hash_table_lookup(ptr noundef %6, ptr noundef nonnull %5)
  %.not = icmp eq ptr %7, null
  br i1 %.not, label %8, label %20

8:                                                ; preds = %4
  %9 = call ptr @wmem_epan_scope()
  %10 = call noalias dereferenceable_or_null(8) ptr @wmem_alloc(ptr noundef %9, i64 noundef 8) #18
  store ptr %2, ptr %10, align 8
  %11 = call ptr @wmem_epan_scope()
  %12 = call noalias dereferenceable_or_null(8) ptr @wmem_alloc(ptr noundef %11, i64 noundef 8) #18
  %13 = call ptr @wmem_epan_scope()
  %14 = call noalias dereferenceable_or_null(24) ptr @wmem_alloc(ptr noundef %13, i64 noundef 24) #18
  store ptr %14, ptr %12, align 8
  %15 = getelementptr inbounds nuw i8, ptr %14, i64 8
  store ptr %1, ptr %15, align 8
  store ptr %0, ptr %14, align 8
  %16 = call ptr @find_protocol_by_id(i32 noundef %3)
  %17 = getelementptr inbounds nuw i8, ptr %14, i64 16
  store ptr %16, ptr %17, align 8
  %18 = load ptr, ptr @giop_module_hash, align 8
  %19 = call i32 @g_hash_table_insert(ptr noundef %18, ptr noundef %10, ptr noundef %12)
  br label %20

20:                                               ; preds = %4, %8
  call void @llvm.lifetime.end.p0(i64 8, ptr nonnull %5) #17
  ret void
}